; Function Attrs: mustprogress uwtable
define noundef i32 @uregex_split_75(ptr noundef %regexp2, ptr noundef %destBuf, i32 noundef %destCapacity, ptr noundef %requiredCapacity, ptr noundef %destFields, i32 noundef %destFieldsCapacity, ptr noundef %status) local_unnamed_addr #5 {
entry:
  %0 = load i32, ptr %status, align 4
  %cmp.i.i = icmp slt i32 %0, 1
  br i1 %cmp.i.i, label %if.end.i, label %return

if.end.i:                                         ; preds = %entry
  %cmp.i = icmp eq ptr %regexp2, null
  br i1 %cmp.i, label %return.sink.split.i, label %lor.lhs.false.i

lor.lhs.false.i:                                  ; preds = %if.end.i
  %1 = load i32, ptr %regexp2, align 8
  %cmp1.not.i = icmp eq i32 %1, 1919252592
  br i1 %cmp1.not.i, label %if.end3.i, label %return.sink.split.i

if.end3.i:                                        ; preds = %lor.lhs.false.i
  %fText.i = getelementptr inbounds i8, ptr %regexp2, i64 48
  %2 = load ptr, ptr %fText.i, align 8
  %cmp5.i = icmp eq ptr %2, null
  br i1 %cmp5.i, label %land.lhs.true6.i, label %if.end

land.lhs.true6.i:                                 ; preds = %if.end3.i
  %fOwnsText.i = getelementptr inbounds i8, ptr %regexp2, i64 60
  %3 = load i8, ptr %fOwnsText.i, align 4
  %tobool7.not.i = icmp eq i8 %3, 0
  br i1 %tobool7.not.i, label %return.sink.split.i, label %if.end

return.sink.split.i:                              ; preds = %land.lhs.true6.i, %lor.lhs.false.i, %if.end.i
  %.sink.i = phi i32 [ 1, %lor.lhs.false.i ], [ 1, %if.end.i ], [ 66306, %land.lhs.true6.i ]
  store i32 %.sink.i, ptr %status, align 4
  br label %return

if.end:                                           ; preds = %land.lhs.true6.i, %if.end3.i
  %cmp1 = icmp eq ptr %destBuf, null
  %cmp2 = icmp sgt i32 %destCapacity, 0
  %or.cond = and i1 %cmp1, %cmp2
  %cmp3 = icmp slt i32 %destCapacity, 0
  %or.cond1 = or i1 %cmp3, %or.cond
  %cmp5 = icmp eq ptr %destFields, null
  %or.cond2 = or i1 %or.cond1, %cmp5
  %cmp7 = icmp slt i32 %destFieldsCapacity, 1
  %or.cond3 = or i1 %or.cond2, %cmp7
  br i1 %or.cond3, label %if.then8, label %if.end9

if.then8:                                         ; preds = %if.end
  store i32 1, ptr %status, align 4
  br label %return

if.end9:                                          ; preds = %if.end
  %call10 = tail call noundef i32 @_ZN6icu_7510RegexCImpl5splitEPNS_17RegularExpressionEPDsiPiPS3_iP10UErrorCode(ptr noundef nonnull %regexp2, ptr noundef %destBuf, i32 noundef %destCapacity, ptr noundef %requiredCapacity, ptr noundef nonnull %destFields, i32 noundef %destFieldsCapacity, ptr noundef nonnull %status)
  br label %return

return:                                           ; preds = %return.sink.split.i, %entry, %if.end9, %if.then8
  %retval.0 = phi i32 [ 0, %if.then8 ], [ %call10, %if.end9 ], [ 0, %entry ], [ 0, %return.sink.split.i ]
  ret i32 %retval.0
}